target datalayout = "e-m:e-p270:32:32-p271:32:32-p272:64:64-i64:64-i128:128-f80:128-n8:16:32:64-S128"
target triple = "x86_64-pc-linux-gnu"

; Function Attrs: nounwind uwtable
define dso_local void @str_ellide_in_place(ptr noundef %0, i64 noundef %1) #0 {
  %3 = alloca ptr, align 8
  %4 = alloca i64, align 8
  %5 = alloca i64, align 8
  %6 = alloca i32, align 4
  store ptr %0, ptr %3, align 8
  store i64 %1, ptr %4, align 8
  %7 = load ptr, ptr %3, align 8
  %8 = call i64 @strlen(ptr noundef %7) #7
  store i64 %8, ptr %5, align 8
  %9 = load i64, ptr %4, align 8
  %10 = load i64, ptr %5, align 8
  %11 = icmp ugt i64 %9, %10
  br i1 %11, label %12, label %13

12:                                               ; preds = %2
  br label %32

13:                                               ; preds = %2
  store i32 0, ptr %6, align 4
  br label %14

14:                                               ; preds = %24, %13
  %15 = load i32, ptr %6, align 4
  %16 = icmp slt i32 %15, 3
  br i1 %16, label %17, label %27

17:                                               ; preds = %14
  %18 = load ptr, ptr %3, align 8
  %19 = load i64, ptr %4, align 8
  %20 = load i32, ptr %6, align 4
  %21 = sext i32 %20 to i64
  %22 = sub i64 %19, %21
  %23 = getelementptr inbounds i8, ptr %18, i64 %22
  store i8 46, ptr %23, align 1
  br label %24

24:                                               ; preds = %17
  %25 = load i32, ptr %6, align 4
  %26 = add nsw i32 %25, 1
  store i32 %26, ptr %6, align 4
  br label %14, !llvm.loop !17

27:                                               ; preds = %14
  %28 = load ptr, ptr %3, align 8
  %29 = load i64, ptr %4, align 8
  %30 = add i64 %29, 1
  %31 = getelementptr inbounds i8, ptr %28, i64 %30
  store i8 0, ptr %31, align 1
  br label %32

32:                                               ; preds = %27, %12
  ret void
}