; Function Attrs: mustprogress nofree nounwind willreturn memory(argmem: readwrite) uwtable
define dso_local void @str_ellide_in_place(ptr nocapture noundef %0, i64 noundef %1) local_unnamed_addr #6 {
  %3 = tail call i64 @strlen(ptr noundef nonnull dereferenceable(1) %0) #20
  %4 = icmp ult i64 %3, %1
  br i1 %4, label %8, label %.preheader.preheader

.preheader.preheader:                             ; preds = %2
  %5 = getelementptr i8, ptr %0, i64 %1
  %scevgep = getelementptr i8, ptr %5, i64 -2
  tail call void @llvm.memset.p0.i64(ptr noundef nonnull align 1 dereferenceable(3) %scevgep, i8 46, i64 3, i1 false)
  %6 = getelementptr i8, ptr %0, i64 %1
  %7 = getelementptr i8, ptr %6, i64 1
  store i8 0, ptr %7, align 1
  br label %8

8:                                                ; preds = %2, %.preheader.preheader
  ret void
}